; Function Attrs: mustprogress nofree nounwind uwtable
define hidden noundef zeroext i1 @_ZN9DwarfFile12DebugAranges23read_address_descriptorERNS0_17AddressDescriptorE(ptr nocapture noundef nonnull align 8 dereferenceable(64) %0, ptr nocapture noundef nonnull align 8 dereferenceable(16) %1) local_unnamed_addr #3 align 2 {
  %3 = getelementptr inbounds i8, ptr %0, i64 32
  %4 = load i64, ptr %3, align 8
  %5 = add nsw i64 %4, 8
  store i64 %5, ptr %3, align 8
  %6 = getelementptr inbounds i8, ptr %0, i64 16
  %7 = load ptr, ptr %6, align 8
  %8 = tail call i64 @fread(ptr noundef nonnull %1, i64 noundef 8, i64 noundef 1, ptr noundef %7)
  %9 = icmp eq i64 %8, 1
  br i1 %9, label %10, label %17

10:                                               ; preds = %2
  %11 = getelementptr inbounds i8, ptr %1, i64 8
  %12 = load i64, ptr %3, align 8
  %13 = add nsw i64 %12, 8
  store i64 %13, ptr %3, align 8
  %14 = load ptr, ptr %6, align 8
  %15 = tail call i64 @fread(ptr noundef nonnull %11, i64 noundef 8, i64 noundef 1, ptr noundef %14)
  %16 = icmp eq i64 %15, 1
  br label %17

17:                                               ; preds = %10, %2
  %18 = phi i1 [ false, %2 ], [ %16, %10 ]
  ret i1 %18
}